target datalayout = "e-m:e-p270:32:32-p271:32:32-p272:64:64-i64:64-i128:128-f80:128-n8:16:32:64-S128"
target triple = "x86_64-pc-linux-gnu"

%struct.JSValue = type { %union.JSValueUnion, i64 }
%union.JSValueUnion = type { double }
%struct.JSSTDFile = type { ptr, i32, i32 }
%struct.DynBuf = type { ptr, i64, i64, i32, ptr, ptr }

@js_std_file_class_id = internal global i32 0, align 4
@.str.41 = private unnamed_addr constant [20 x i8] c"invalid file handle\00", align 1

; Function Attrs: nounwind uwtable
define internal void @js_std_dbuf_init(ptr noundef %0, ptr noundef %1) #0 {
  %3 = alloca ptr, align 8
  %4 = alloca ptr, align 8
  store ptr %0, ptr %3, align 8
  store ptr %1, ptr %4, align 8
  %5 = load ptr, ptr %4, align 8
  %6 = load ptr, ptr %3, align 8
  %7 = call ptr @JS_GetRuntime(ptr noundef %6)
  call void @dbuf_init2(ptr noundef %5, ptr noundef %7, ptr noundef @js_realloc_rt)
  ret void
}

; Function Attrs: nounwind uwtable
define internal ptr @js_std_file_get(ptr noundef %0, i64 %1, i64 %2) #0 {
  %4 = alloca ptr, align 8
  %5 = alloca %struct.JSValue, align 8
  %6 = alloca ptr, align 8
  %7 = alloca ptr, align 8
  %8 = alloca %struct.JSValue, align 8
  %9 = getelementptr inbounds { i64, i64 }, ptr %5, i32 0, i32 0
  store i64 %1, ptr %9, align 8
  %10 = getelementptr inbounds { i64, i64 }, ptr %5, i32 0, i32 1
  store i64 %2, ptr %10, align 8
  store ptr %0, ptr %6, align 8
  %11 = load ptr, ptr %6, align 8
  %12 = load i32, ptr @js_std_file_class_id, align 4
  %13 = getelementptr inbounds { i64, i64 }, ptr %5, i32 0, i32 0
  %14 = load i64, ptr %13, align 8
  %15 = getelementptr inbounds { i64, i64 }, ptr %5, i32 0, i32 1
  %16 = load i64, ptr %15, align 8
  %17 = call ptr @JS_GetOpaque2(ptr noundef %11, i64 %14, i64 %16, i32 noundef %12)
  store ptr %17, ptr %7, align 8
  %18 = load ptr, ptr %7, align 8
  %19 = icmp ne ptr %18, null
  br i1 %19, label %21, label %20

20:                                               ; preds = %3
  store ptr null, ptr %4, align 8
  br label %37

21:                                               ; preds = %3
  %22 = load ptr, ptr %7, align 8
  %23 = getelementptr inbounds %struct.JSSTDFile, ptr %22, i32 0, i32 0
  %24 = load ptr, ptr %23, align 8
  %25 = icmp ne ptr %24, null
  br i1 %25, label %33, label %26

26:                                               ; preds = %21
  %27 = load ptr, ptr %6, align 8
  %28 = call { i64, i64 } (ptr, ptr, ...) @JS_ThrowTypeError(ptr noundef %27, ptr noundef @.str.41)
  %29 = getelementptr inbounds { i64, i64 }, ptr %8, i32 0, i32 0
  %30 = extractvalue { i64, i64 } %28, 0
  store i64 %30, ptr %29, align 8
  %31 = getelementptr inbounds { i64, i64 }, ptr %8, i32 0, i32 1
  %32 = extractvalue { i64, i64 } %28, 1
  store i64 %32, ptr %31, align 8
  store ptr null, ptr %4, align 8
  br label %37

33:                                               ; preds = %21
  %34 = load ptr, ptr %7, align 8
  %35 = getelementptr inbounds %struct.JSSTDFile, ptr %34, i32 0, i32 0
  %36 = load ptr, ptr %35, align 8
  store ptr %36, ptr %4, align 8
  br label %37

37:                                               ; preds = %33, %26, %20
  %38 = load ptr, ptr %4, align 8
  ret ptr %38
}

; Function Attrs: nounwind uwtable
define internal { i64, i64 } @js_std_file_getline(ptr noundef %0, i64 %1, i64 %2, i32 noundef %3, ptr noundef %4) #0 {
  %6 = alloca %struct.JSValue, align 8
  %7 = alloca %struct.JSValue, align 8
  %8 = alloca ptr, align 8
  %9 = alloca i32, align 4
  %10 = alloca ptr, align 8
  %11 = alloca ptr, align 8
  %12 = alloca i32, align 4
  %13 = alloca %struct.DynBuf, align 8
  %14 = alloca %struct.JSValue, align 8
  %15 = alloca %struct.JSValue, align 8
  %16 = getelementptr inbounds { i64, i64 }, ptr %7, i32 0, i32 0
  store i64 %1, ptr %16, align 8
  %17 = getelementptr inbounds { i64, i64 }, ptr %7, i32 0, i32 1
  store i64 %2, ptr %17, align 8
  store ptr %0, ptr %8, align 8
  store i32 %3, ptr %9, align 4
  store ptr %4, ptr %10, align 8
  %18 = load ptr, ptr %8, align 8
  %19 = getelementptr inbounds { i64, i64 }, ptr %7, i32 0, i32 0
  %20 = load i64, ptr %19, align 8
  %21 = getelementptr inbounds { i64, i64 }, ptr %7, i32 0, i32 1
  %22 = load i64, ptr %21, align 8
  %23 = call ptr @js_std_file_get(ptr noundef %18, i64 %20, i64 %22)
  store ptr %23, ptr %11, align 8
  %24 = load ptr, ptr %11, align 8
  %25 = icmp ne ptr %24, null
  br i1 %25, label %29, label %26

26:                                               ; preds = %5
  %27 = getelementptr inbounds %struct.JSValue, ptr %6, i32 0, i32 0
  store i32 0, ptr %27, align 8
  %28 = getelementptr inbounds %struct.JSValue, ptr %6, i32 0, i32 1
  store i64 6, ptr %28, align 8
  br label %72

29:                                               ; preds = %5
  %30 = load ptr, ptr %8, align 8
  call void @js_std_dbuf_init(ptr noundef %30, ptr noundef %13)
  br label %31

31:                                               ; preds = %60, %29
  %32 = load ptr, ptr %11, align 8
  %33 = call i32 @fgetc(ptr noundef %32)
  store i32 %33, ptr %12, align 4
  %34 = load i32, ptr %12, align 4
  %35 = icmp eq i32 %34, -1
  br i1 %35, label %36, label %44

36:                                               ; preds = %31
  %37 = getelementptr inbounds %struct.DynBuf, ptr %13, i32 0, i32 1
  %38 = load i64, ptr %37, align 8
  %39 = icmp eq i64 %38, 0
  br i1 %39, label %40, label %43

40:                                               ; preds = %36
  call void @dbuf_free(ptr noundef %13)
  %41 = getelementptr inbounds %struct.JSValue, ptr %6, i32 0, i32 0
  store i32 0, ptr %41, align 8
  %42 = getelementptr inbounds %struct.JSValue, ptr %6, i32 0, i32 1
  store i64 2, ptr %42, align 8
  br label %72

43:                                               ; preds = %36
  br label %61

44:                                               ; preds = %31
  %45 = load i32, ptr %12, align 4
  %46 = icmp eq i32 %45, 10
  br i1 %46, label %47, label %48

47:                                               ; preds = %44
  br label %61

48:                                               ; preds = %44
  %49 = load i32, ptr %12, align 4
  %50 = trunc i32 %49 to i8
  %51 = call i32 @dbuf_putc(ptr noundef %13, i8 noundef zeroext %50)
  %52 = icmp ne i32 %51, 0
  br i1 %52, label %53, label %60

53:                                               ; preds = %48
  call void @dbuf_free(ptr noundef %13)
  %54 = load ptr, ptr %8, align 8
  %55 = call { i64, i64 } @JS_ThrowOutOfMemory(ptr noundef %54)
  %56 = getelementptr inbounds { i64, i64 }, ptr %6, i32 0, i32 0
  %57 = extractvalue { i64, i64 } %55, 0
  store i64 %57, ptr %56, align 8
  %58 = getelementptr inbounds { i64, i64 }, ptr %6, i32 0, i32 1
  %59 = extractvalue { i64, i64 } %55, 1
  store i64 %59, ptr %58, align 8
  br label %72

60:                                               ; preds = %48
  br label %31

61:                                               ; preds = %47, %43
  %62 = load ptr, ptr %8, align 8
  %63 = getelementptr inbounds %struct.DynBuf, ptr %13, i32 0, i32 0
  %64 = load ptr, ptr %63, align 8
  %65 = getelementptr inbounds %struct.DynBuf, ptr %13, i32 0, i32 1
  %66 = load i64, ptr %65, align 8
  %67 = call { i64, i64 } @JS_NewStringLen(ptr noundef %62, ptr noundef %64, i64 noundef %66)
  %68 = getelementptr inbounds { i64, i64 }, ptr %15, i32 0, i32 0
  %69 = extractvalue { i64, i64 } %67, 0
  store i64 %69, ptr %68, align 8
  %70 = getelementptr inbounds { i64, i64 }, ptr %15, i32 0, i32 1
  %71 = extractvalue { i64, i64 } %67, 1
  store i64 %71, ptr %70, align 8
  call void @llvm.memcpy.p0.p0.i64(ptr align 8 %14, ptr align 8 %15, i64 16, i1 false)
  call void @dbuf_free(ptr noundef %13)
  call void @llvm.memcpy.p0.p0.i64(ptr align 8 %6, ptr align 8 %14, i64 16, i1 false)
  br label %72

72:                                               ; preds = %61, %53, %40, %26
  %73 = load { i64, i64 }, ptr %6, align 8
  ret { i64, i64 } %73
}