; Function Attrs: nounwind uwtable
define internal { i64, i64 } @js_std_file_getline(ptr noundef %0, i64 %1, i64 %2, i32 %3, ptr nocapture readnone %4) #0 {
  %6 = alloca %struct.DynBuf, align 8
  %7 = load i32, ptr @js_std_file_class_id, align 4
  %8 = tail call ptr @JS_GetOpaque2(ptr noundef %0, i64 %1, i64 %2, i32 noundef %7) #29
  %.not.i = icmp eq ptr %8, null
  br i1 %.not.i, label %js_std_file_get.exit.thread, label %9

9:                                                ; preds = %5
  %10 = load ptr, ptr %8, align 8
  %.not9.i = icmp eq ptr %10, null
  br i1 %.not9.i, label %11, label %js_std_file_get.exit

11:                                               ; preds = %9
  %12 = tail call { i64, i64 } (ptr, ptr, ...) @JS_ThrowTypeError(ptr noundef %0, ptr noundef nonnull @.str.41) #29
  br label %js_std_file_get.exit.thread

js_std_file_get.exit:                             ; preds = %9
  %13 = tail call ptr @JS_GetRuntime(ptr noundef %0) #29
  call void @dbuf_init2(ptr noundef nonnull %6, ptr noundef %13, ptr noundef nonnull @js_realloc_rt) #29
  br label %14

14:                                               ; preds = %21, %js_std_file_get.exit
  %15 = call i32 @fgetc(ptr noundef nonnull %10)
  switch i32 %15, label %21 [
    i32 -1, label %16
    i32 10, label %.loopexit.loopexit
  ]

16:                                               ; preds = %14
  %17 = getelementptr inbounds i8, ptr %6, i64 8
  %18 = load i64, ptr %17, align 8
  %19 = icmp eq i64 %18, 0
  br i1 %19, label %20, label %.loopexit

20:                                               ; preds = %16
  call void @dbuf_free(ptr noundef nonnull %6) #29
  br label %js_std_file_get.exit.thread

21:                                               ; preds = %14
  %22 = trunc i32 %15 to i8
  %23 = call i32 @dbuf_putc(ptr noundef nonnull %6, i8 noundef zeroext %22) #29
  %.not20 = icmp eq i32 %23, 0
  br i1 %.not20, label %14, label %24

24:                                               ; preds = %21
  call void @dbuf_free(ptr noundef nonnull %6) #29
  %25 = call { i64, i64 } @JS_ThrowOutOfMemory(ptr noundef %0) #29
  %26 = extractvalue { i64, i64 } %25, 0
  %.sroa.5.0.extract.shift = and i64 %26, -4294967296
  %27 = extractvalue { i64, i64 } %25, 1
  br label %js_std_file_get.exit.thread

.loopexit.loopexit:                               ; preds = %14
  %.phi.trans.insert = getelementptr inbounds i8, ptr %6, i64 8
  %.pre = load i64, ptr %.phi.trans.insert, align 8
  br label %.loopexit

.loopexit:                                        ; preds = %.loopexit.loopexit, %16
  %28 = phi i64 [ %.pre, %.loopexit.loopexit ], [ %18, %16 ]
  %29 = load ptr, ptr %6, align 8
  %30 = call { i64, i64 } @JS_NewStringLen(ptr noundef %0, ptr noundef %29, i64 noundef %28) #29
  %31 = extractvalue { i64, i64 } %30, 0
  %32 = extractvalue { i64, i64 } %30, 1
  call void @dbuf_free(ptr noundef nonnull %6) #29
  %.sroa.5.0.extract.shift14 = and i64 %31, -4294967296
  br label %js_std_file_get.exit.thread

js_std_file_get.exit.thread:                      ; preds = %5, %11, %.loopexit, %24, %20
  %.sroa.012.0 = phi i64 [ 0, %20 ], [ %31, %.loopexit ], [ %26, %24 ], [ 0, %11 ], [ 0, %5 ]
  %.sroa.5.sroa.0.0 = phi i64 [ 0, %20 ], [ %.sroa.5.0.extract.shift14, %.loopexit ], [ %.sroa.5.0.extract.shift, %24 ], [ 0, %11 ], [ 0, %5 ]
  %.sroa.5.sroa.3.0 = phi i64 [ 2, %20 ], [ %32, %.loopexit ], [ %27, %24 ], [ 6, %11 ], [ 6, %5 ]
  %.sroa.012.0.insert.ext = and i64 %.sroa.012.0, 4294967295
  %.sroa.012.0.insert.insert = or disjoint i64 %.sroa.5.sroa.0.0, %.sroa.012.0.insert.ext
  %.fca.0.insert = insertvalue { i64, i64 } poison, i64 %.sroa.012.0.insert.insert, 0
  %.fca.1.insert = insertvalue { i64, i64 } %.fca.0.insert, i64 %.sroa.5.sroa.3.0, 1
  ret { i64, i64 } %.fca.1.insert
}